target datalayout = "e-m:e-p270:32:32-p271:32:32-p272:64:64-i64:64-i128:128-f80:128-n8:16:32:64-S128"
target triple = "x86_64-pc-linux-gnu"

%"class.Ipopt::IndexSchurData" = type { %"class.Ipopt::SchurData.base", %"class.std::vector", %"class.std::vector" }
%"class.Ipopt::SchurData.base" = type { %"class.Ipopt::ReferencedObject.base", i8, i32 }
%"class.Ipopt::ReferencedObject.base" = type <{ ptr, i32 }>
%"class.std::vector" = type { %"struct.std::_Vector_base" }
%"struct.std::_Vector_base" = type { %"struct.std::_Vector_base<int, std::allocator<int>>::_Vector_impl" }
%"struct.std::_Vector_base<int, std::allocator<int>>::_Vector_impl" = type { %"struct.std::_Vector_base<int, std::allocator<int>>::_Vector_impl_data" }
%"struct.std::_Vector_base<int, std::allocator<int>>::_Vector_impl_data" = type { ptr, ptr, ptr }
%"class.std::__cxx11::basic_string" = type { %"struct.std::__cxx11::basic_string<char>::_Alloc_hider", i64, %union.anon }
%"struct.std::__cxx11::basic_string<char>::_Alloc_hider" = type { ptr }
%union.anon = type { i64, [8 x i8] }

@.str = private unnamed_addr constant [37 x i8] c"%sIndexSchurData \22%s\22 with %d rows:\0A\00", align 1
@.str.1 = private unnamed_addr constant [19 x i8] c"%s%s[%5zd,%5d]=%d\0A\00", align 1
@.str.2 = private unnamed_addr constant [18 x i8] c"%sUninitialized!\0A\00", align 1

; Function Attrs: noinline noreturn nounwind uwtable
define linkonce_odr hidden void @__clang_call_terminate(ptr noundef %0) #11 comdat {
  %2 = call ptr @__cxa_begin_catch(ptr %0) #15
  call void @_ZSt9terminatev() #16
  unreachable
}

; Function Attrs: mustprogress nounwind uwtable
define available_externally noundef ptr @_ZNKSt7__cxx1112basic_stringIcSt11char_traitsIcESaIcEE7_M_dataEv(ptr noundef nonnull align 8 dereferenceable(32) %0) #1 align 2 {
  %2 = alloca ptr, align 8
  store ptr %0, ptr %2, align 8, !tbaa !112
  %3 = load ptr, ptr %2, align 8
  %4 = getelementptr inbounds nuw %"class.std::__cxx11::basic_string", ptr %3, i32 0, i32 0
  %5 = getelementptr inbounds nuw %"struct.std::__cxx11::basic_string<char>::_Alloc_hider", ptr %4, i32 0, i32 0
  %6 = load ptr, ptr %5, align 8, !tbaa !154
  ret ptr %6
}

; Function Attrs: mustprogress nounwind uwtable
define linkonce_odr noundef nonnull align 4 dereferenceable(4) ptr @_ZNKSt6vectorIiSaIiEEixEm(ptr noundef nonnull align 8 dereferenceable(24) %0, i64 noundef %1) #1 comdat align 2 {
  %3 = alloca ptr, align 8
  %4 = alloca i64, align 8
  store ptr %0, ptr %3, align 8, !tbaa !18
  store i64 %1, ptr %4, align 8, !tbaa !20
  %5 = load ptr, ptr %3, align 8
  %6 = getelementptr inbounds nuw %"struct.std::_Vector_base", ptr %5, i32 0, i32 0
  %7 = getelementptr inbounds nuw %"struct.std::_Vector_base<int, std::allocator<int>>::_Vector_impl_data", ptr %6, i32 0, i32 0
  %8 = load ptr, ptr %7, align 8, !tbaa !24
  %9 = load i64, ptr %4, align 8, !tbaa !20
  %10 = getelementptr inbounds nuw i32, ptr %8, i64 %9
  ret ptr %10
}

; Function Attrs: mustprogress nounwind uwtable
define linkonce_odr noundef i64 @_ZNKSt6vectorIiSaIiEE4sizeEv(ptr noundef nonnull align 8 dereferenceable(24) %0) #1 comdat align 2 {
  %2 = alloca ptr, align 8
  store ptr %0, ptr %2, align 8, !tbaa !18
  %3 = load ptr, ptr %2, align 8
  %4 = getelementptr inbounds nuw %"struct.std::_Vector_base", ptr %3, i32 0, i32 0
  %5 = getelementptr inbounds nuw %"struct.std::_Vector_base<int, std::allocator<int>>::_Vector_impl_data", ptr %4, i32 0, i32 1
  %6 = load ptr, ptr %5, align 8, !tbaa !26
  %7 = getelementptr inbounds nuw %"struct.std::_Vector_base", ptr %3, i32 0, i32 0
  %8 = getelementptr inbounds nuw %"struct.std::_Vector_base<int, std::allocator<int>>::_Vector_impl_data", ptr %7, i32 0, i32 0
  %9 = load ptr, ptr %8, align 8, !tbaa !24
  %10 = ptrtoint ptr %6 to i64
  %11 = ptrtoint ptr %9 to i64
  %12 = sub i64 %10, %11
  %13 = sdiv exact i64 %12, 4
  ret i64 %13
}

; Function Attrs: mustprogress nounwind uwtable
define available_externally noundef ptr @_ZNKSt7__cxx1112basic_stringIcSt11char_traitsIcESaIcEE5c_strEv(ptr noundef nonnull align 8 dereferenceable(32) %0) #1 align 2 personality ptr @__gxx_personality_v0 {
  %2 = alloca ptr, align 8
  store ptr %0, ptr %2, align 8, !tbaa !112
  %3 = load ptr, ptr %2, align 8
  %4 = invoke noundef ptr @_ZNKSt7__cxx1112basic_stringIcSt11char_traitsIcESaIcEE7_M_dataEv(ptr noundef nonnull align 8 dereferenceable(32) %3)
          to label %5 unwind label %6

5:                                                ; preds = %1
  ret ptr %4

6:                                                ; preds = %1
  %7 = landingpad { ptr, i32 }
          catch ptr null
  %8 = extractvalue { ptr, i32 } %7, 0
  call void @__clang_call_terminate(ptr %8) #16
  unreachable
}

; Function Attrs: mustprogress uwtable
define void @_ZNK5Ipopt14IndexSchurData9PrintImplERKNS_10JournalistENS_13EJournalLevelENS_16EJournalCategoryERKNSt7__cxx1112basic_stringIcSt11char_traitsIcESaIcEEEiSD_(ptr noundef nonnull align 8 dereferenceable(72) %0, ptr noundef nonnull align 8 dereferenceable(40) %1, i32 noundef %2, i32 noundef %3, ptr noundef nonnull align 8 dereferenceable(32) %4, i32 noundef %5, ptr noundef nonnull align 8 dereferenceable(32) %6) unnamed_addr #0 align 2 {
  %8 = alloca ptr, align 8
  %9 = alloca ptr, align 8
  %10 = alloca i32, align 4
  %11 = alloca i32, align 4
  %12 = alloca ptr, align 8
  %13 = alloca i32, align 4
  %14 = alloca ptr, align 8
  %15 = alloca i64, align 8
  store ptr %0, ptr %8, align 8, !tbaa !3
  store ptr %1, ptr %9, align 8, !tbaa !106
  store i32 %2, ptr %10, align 4, !tbaa !108
  store i32 %3, ptr %11, align 4, !tbaa !110
  store ptr %4, ptr %12, align 8, !tbaa !112
  store i32 %5, ptr %13, align 4, !tbaa !32
  store ptr %6, ptr %14, align 8, !tbaa !112
  %16 = load ptr, ptr %8, align 8
  %17 = load ptr, ptr %9, align 8, !tbaa !106
  %18 = load i32, ptr %10, align 4, !tbaa !108
  %19 = load i32, ptr %11, align 4, !tbaa !110
  %20 = load i32, ptr %13, align 4, !tbaa !32
  %21 = load ptr, ptr %14, align 8, !tbaa !112
  %22 = call noundef ptr @_ZNKSt7__cxx1112basic_stringIcSt11char_traitsIcESaIcEE5c_strEv(ptr noundef nonnull align 8 dereferenceable(32) %21) #15
  %23 = load ptr, ptr %12, align 8, !tbaa !112
  %24 = call noundef ptr @_ZNKSt7__cxx1112basic_stringIcSt11char_traitsIcESaIcEE5c_strEv(ptr noundef nonnull align 8 dereferenceable(32) %23) #15
  %25 = load ptr, ptr %16, align 8, !tbaa !8
  %26 = getelementptr inbounds ptr, ptr %25, i64 8
  %27 = load ptr, ptr %26, align 8
  %28 = call noundef i32 %27(ptr noundef nonnull align 8 dereferenceable(72) %16)
  %29 = load ptr, ptr %17, align 8, !tbaa !8
  %30 = getelementptr inbounds ptr, ptr %29, i64 4
  %31 = load ptr, ptr %30, align 8
  call void (ptr, i32, i32, i32, ptr, ...) %31(ptr noundef nonnull align 8 dereferenceable(40) %17, i32 noundef %18, i32 noundef %19, i32 noundef %20, ptr noundef @.str, ptr noundef %22, ptr noundef %24, i32 noundef %28)
  %32 = load ptr, ptr %16, align 8, !tbaa !8
  %33 = getelementptr inbounds ptr, ptr %32, i64 9
  %34 = load ptr, ptr %33, align 8
  %35 = call noundef zeroext i1 %34(ptr noundef nonnull align 8 dereferenceable(20) %16)
  br i1 %35, label %36, label %68

36:                                               ; preds = %7
  call void @llvm.lifetime.start.p0(i64 8, ptr %15) #15
  store i64 0, ptr %15, align 8, !tbaa !20
  br label %37

37:                                               ; preds = %64, %36
  %38 = load i64, ptr %15, align 8, !tbaa !20
  %39 = getelementptr inbounds nuw %"class.Ipopt::IndexSchurData", ptr %16, i32 0, i32 1
  %40 = call noundef i64 @_ZNKSt6vectorIiSaIiEE4sizeEv(ptr noundef nonnull align 8 dereferenceable(24) %39) #15
  %41 = icmp ult i64 %38, %40
  br i1 %41, label %43, label %42

42:                                               ; preds = %37
  call void @llvm.lifetime.end.p0(i64 8, ptr %15) #15
  br label %67

43:                                               ; preds = %37
  %44 = load ptr, ptr %9, align 8, !tbaa !106
  %45 = load i32, ptr %10, align 4, !tbaa !108
  %46 = load i32, ptr %11, align 4, !tbaa !110
  %47 = load i32, ptr %13, align 4, !tbaa !32
  %48 = load ptr, ptr %14, align 8, !tbaa !112
  %49 = call noundef ptr @_ZNKSt7__cxx1112basic_stringIcSt11char_traitsIcESaIcEE5c_strEv(ptr noundef nonnull align 8 dereferenceable(32) %48) #15
  %50 = load ptr, ptr %12, align 8, !tbaa !112
  %51 = call noundef ptr @_ZNKSt7__cxx1112basic_stringIcSt11char_traitsIcESaIcEE5c_strEv(ptr noundef nonnull align 8 dereferenceable(32) %50) #15
  %52 = load i64, ptr %15, align 8, !tbaa !20
  %53 = getelementptr inbounds nuw %"class.Ipopt::IndexSchurData", ptr %16, i32 0, i32 1
  %54 = load i64, ptr %15, align 8, !tbaa !20
  %55 = call noundef nonnull align 4 dereferenceable(4) ptr @_ZNKSt6vectorIiSaIiEEixEm(ptr noundef nonnull align 8 dereferenceable(24) %53, i64 noundef %54) #15
  %56 = load i32, ptr %55, align 4, !tbaa !32
  %57 = getelementptr inbounds nuw %"class.Ipopt::IndexSchurData", ptr %16, i32 0, i32 2
  %58 = load i64, ptr %15, align 8, !tbaa !20
  %59 = call noundef nonnull align 4 dereferenceable(4) ptr @_ZNKSt6vectorIiSaIiEEixEm(ptr noundef nonnull align 8 dereferenceable(24) %57, i64 noundef %58) #15
  %60 = load i32, ptr %59, align 4, !tbaa !32
  %61 = load ptr, ptr %44, align 8, !tbaa !8
  %62 = getelementptr inbounds ptr, ptr %61, i64 4
  %63 = load ptr, ptr %62, align 8
  call void (ptr, i32, i32, i32, ptr, ...) %63(ptr noundef nonnull align 8 dereferenceable(40) %44, i32 noundef %45, i32 noundef %46, i32 noundef %47, ptr noundef @.str.1, ptr noundef %49, ptr noundef %51, i64 noundef %52, i32 noundef %56, i32 noundef %60)
  br label %64

64:                                               ; preds = %43
  %65 = load i64, ptr %15, align 8, !tbaa !20
  %66 = add i64 %65, 1
  store i64 %66, ptr %15, align 8, !tbaa !20
  br label %37, !llvm.loop !114

67:                                               ; preds = %42
  br label %78

68:                                               ; preds = %7
  %69 = load ptr, ptr %9, align 8, !tbaa !106
  %70 = load i32, ptr %10, align 4, !tbaa !108
  %71 = load i32, ptr %11, align 4, !tbaa !110
  %72 = load i32, ptr %13, align 4, !tbaa !32
  %73 = load ptr, ptr %14, align 8, !tbaa !112
  %74 = call noundef ptr @_ZNKSt7__cxx1112basic_stringIcSt11char_traitsIcESaIcEE5c_strEv(ptr noundef nonnull align 8 dereferenceable(32) %73) #15
  %75 = load ptr, ptr %69, align 8, !tbaa !8
  %76 = getelementptr inbounds ptr, ptr %75, i64 4
  %77 = load ptr, ptr %76, align 8
  call void (ptr, i32, i32, i32, ptr, ...) %77(ptr noundef nonnull align 8 dereferenceable(40) %69, i32 noundef %70, i32 noundef %71, i32 noundef %72, ptr noundef @.str.2, ptr noundef %74)
  br label %78

78:                                               ; preds = %68, %67
  ret void
}