; Function Attrs: mustprogress uwtable
define void @_ZNK5Ipopt14IndexSchurData9PrintImplERKNS_10JournalistENS_13EJournalLevelENS_16EJournalCategoryERKNSt7__cxx1112basic_stringIcSt11char_traitsIcESaIcEEEiSD_(ptr noundef nonnull align 8 dereferenceable(72) %0, ptr noundef nonnull align 8 dereferenceable(40) %1, i32 noundef %2, i32 noundef %3, ptr noundef nonnull readonly align 8 captures(none) dereferenceable(32) %4, i32 noundef %5, ptr noundef nonnull readonly align 8 captures(none) dereferenceable(32) %6) unnamed_addr #1 align 2 personality ptr @__gxx_personality_v0 {
  %8 = load ptr, ptr %6, align 8, !tbaa !123
  %9 = load ptr, ptr %4, align 8, !tbaa !123
  %10 = load ptr, ptr %0, align 8, !tbaa !12
  %11 = getelementptr inbounds nuw i8, ptr %10, i64 64
  %12 = load ptr, ptr %11, align 8
  %13 = tail call noundef i32 %12(ptr noundef nonnull align 8 dereferenceable(72) %0)
  %14 = load ptr, ptr %1, align 8, !tbaa !12
  %15 = getelementptr inbounds nuw i8, ptr %14, i64 32
  %16 = load ptr, ptr %15, align 8
  tail call void (ptr, i32, i32, i32, ptr, ...) %16(ptr noundef nonnull align 8 dereferenceable(40) %1, i32 noundef %2, i32 noundef %3, i32 noundef %5, ptr noundef nonnull @.str, ptr noundef %8, ptr noundef %9, i32 noundef %13)
  %17 = load ptr, ptr %0, align 8, !tbaa !12
  %18 = getelementptr inbounds nuw i8, ptr %17, i64 72
  %19 = load ptr, ptr %18, align 8
  %20 = tail call noundef zeroext i1 %19(ptr noundef nonnull align 8 dereferenceable(20) %0)
  br i1 %20, label %.preheader, label %46

.preheader:                                       ; preds = %7
  %21 = getelementptr inbounds nuw i8, ptr %0, i64 24
  %22 = getelementptr inbounds nuw i8, ptr %0, i64 32
  %23 = load ptr, ptr %22, align 8, !tbaa !14
  %24 = load ptr, ptr %21, align 8, !tbaa !18
  %.not = icmp eq ptr %23, %24
  br i1 %.not, label %.loopexit, label %.lr.ph

.lr.ph:                                           ; preds = %.preheader
  %25 = getelementptr inbounds nuw i8, ptr %0, i64 48
  br label %26

26:                                               ; preds = %.lr.ph, %26
  %27 = phi ptr [ %24, %.lr.ph ], [ %40, %26 ]
  %.022 = phi i64 [ 0, %.lr.ph ], [ %38, %26 ]
  %28 = load ptr, ptr %6, align 8, !tbaa !123
  %29 = load ptr, ptr %4, align 8, !tbaa !123
  %30 = getelementptr inbounds nuw i32, ptr %27, i64 %.022
  %31 = load i32, ptr %30, align 4, !tbaa !24
  %32 = load ptr, ptr %25, align 8, !tbaa !18
  %33 = getelementptr inbounds nuw i32, ptr %32, i64 %.022
  %34 = load i32, ptr %33, align 4, !tbaa !24
  %35 = load ptr, ptr %1, align 8, !tbaa !12
  %36 = getelementptr inbounds nuw i8, ptr %35, i64 32
  %37 = load ptr, ptr %36, align 8
  tail call void (ptr, i32, i32, i32, ptr, ...) %37(ptr noundef nonnull align 8 dereferenceable(40) %1, i32 noundef %2, i32 noundef %3, i32 noundef %5, ptr noundef nonnull @.str.1, ptr noundef %28, ptr noundef %29, i64 noundef %.022, i32 noundef %31, i32 noundef %34)
  %38 = add nuw i64 %.022, 1
  %39 = load ptr, ptr %22, align 8, !tbaa !14
  %40 = load ptr, ptr %21, align 8, !tbaa !18
  %41 = ptrtoint ptr %39 to i64
  %42 = ptrtoint ptr %40 to i64
  %43 = sub i64 %41, %42
  %44 = ashr exact i64 %43, 2
  %45 = icmp ult i64 %38, %44
  br i1 %45, label %26, label %.loopexit, !llvm.loop !128

46:                                               ; preds = %7
  %47 = load ptr, ptr %6, align 8, !tbaa !123
  %48 = load ptr, ptr %1, align 8, !tbaa !12
  %49 = getelementptr inbounds nuw i8, ptr %48, i64 32
  %50 = load ptr, ptr %49, align 8
  tail call void (ptr, i32, i32, i32, ptr, ...) %50(ptr noundef nonnull align 8 dereferenceable(40) %1, i32 noundef %2, i32 noundef %3, i32 noundef %5, ptr noundef nonnull @.str.2, ptr noundef %47)
  br label %.loopexit

.loopexit:                                        ; preds = %26, %.preheader, %46
  ret void
}